target datalayout = "e-m:e-p270:32:32-p271:32:32-p272:64:64-i64:64-i128:128-f80:128-n8:16:32:64-S128"
target triple = "x86_64-pc-linux-gnu"

%struct.timeval = type { i64, i64 }
%struct._zend_execute_data = type { ptr, ptr, ptr, ptr, %struct._zval_struct, ptr, ptr, ptr, ptr }
%struct._zval_struct = type { %union._zend_value, %union.anon.13, %union.anon.16 }
%union._zend_value = type { i64 }
%union.anon.13 = type { i32 }
%union.anon.16 = type { i32 }
%struct._timelib_time_offset = type { i32, i32, i32, ptr, i64 }

@.str.17 = private unnamed_addr constant [4 x i8] c"sec\00", align 1
@.str.18 = private unnamed_addr constant [5 x i8] c"usec\00", align 1
@.str.19 = private unnamed_addr constant [12 x i8] c"minuteswest\00", align 1
@.str.20 = private unnamed_addr constant [8 x i8] c"dsttime\00", align 1
@.str.21 = private unnamed_addr constant [9 x i8] c"%.8F %ld\00", align 1

; Function Attrs: nounwind uwtable
define internal void @_php_gettimeofday(ptr noundef %0, ptr noundef %1, i32 noundef %2) #0 {
  %4 = alloca ptr, align 8
  %5 = alloca ptr, align 8
  %6 = alloca ptr, align 8
  %7 = alloca i1, align 1
  %8 = alloca ptr, align 8
  %9 = alloca ptr, align 8
  %10 = alloca ptr, align 8
  %11 = alloca i8, align 1
  %12 = alloca i32, align 4
  %13 = alloca i8, align 1
  %14 = alloca ptr, align 8
  %15 = alloca ptr, align 8
  %16 = alloca ptr, align 8
  %17 = alloca i8, align 1
  %18 = alloca i32, align 4
  %19 = alloca ptr, align 8
  %20 = alloca ptr, align 8
  %21 = alloca i64, align 8
  %22 = alloca ptr, align 8
  %23 = alloca ptr, align 8
  %24 = alloca i64, align 8
  %25 = alloca ptr, align 8
  %26 = alloca ptr, align 8
  %27 = alloca i64, align 8
  %28 = alloca ptr, align 8
  %29 = alloca ptr, align 8
  %30 = alloca i64, align 8
  %31 = alloca ptr, align 8
  %32 = alloca ptr, align 8
  %33 = alloca i32, align 4
  %34 = alloca i8, align 1
  %35 = alloca %struct.timeval, align 8
  %36 = alloca i32, align 4
  %37 = alloca i32, align 4
  %38 = alloca i32, align 4
  %39 = alloca i32, align 4
  %40 = alloca i32, align 4
  %41 = alloca ptr, align 8
  %42 = alloca ptr, align 8
  %43 = alloca i32, align 4
  %44 = alloca ptr, align 8
  %45 = alloca i8, align 1
  %46 = alloca i8, align 1
  %47 = alloca i32, align 4
  %48 = alloca ptr, align 8
  %49 = alloca ptr, align 8
  %50 = alloca ptr, align 8
  %51 = alloca ptr, align 8
  %52 = alloca ptr, align 8
  %53 = alloca ptr, align 8
  store ptr %0, ptr %31, align 8
  store ptr %1, ptr %32, align 8
  store i32 %2, ptr %33, align 4
  store i8 0, ptr %34, align 1
  call void @llvm.memset.p0.i64(ptr align 8 %35, i8 0, i64 16, i1 false)
  br label %54

54:                                               ; preds = %3
  store i32 0, ptr %36, align 4
  store i32 0, ptr %37, align 4
  store i32 1, ptr %38, align 4
  %55 = load ptr, ptr %31, align 8
  %56 = getelementptr inbounds %struct._zend_execute_data, ptr %55, i32 0, i32 4
  %57 = getelementptr inbounds %struct._zval_struct, ptr %56, i32 0, i32 2
  %58 = load i32, ptr %57, align 4
  store i32 %58, ptr %39, align 4
  store i32 0, ptr %40, align 4
  store ptr null, ptr %42, align 8
  store i32 0, ptr %43, align 4
  store ptr null, ptr %44, align 8
  store i8 0, ptr %45, align 1
  store i8 0, ptr %46, align 1
  store i32 0, ptr %47, align 4
  br label %59

59:                                               ; preds = %54
  %60 = load i32, ptr %39, align 4
  %61 = load i32, ptr %37, align 4
  %62 = icmp ult i32 %60, %61
  %63 = xor i1 %62, true
  %64 = xor i1 %63, true
  %65 = zext i1 %64 to i32
  %66 = sext i32 %65 to i64
  %67 = icmp ne i64 %66, 0
  br i1 %67, label %77, label %68

68:                                               ; preds = %59
  %69 = load i32, ptr %39, align 4
  %70 = load i32, ptr %38, align 4
  %71 = icmp ugt i32 %69, %70
  %72 = xor i1 %71, true
  %73 = xor i1 %72, true
  %74 = zext i1 %73 to i32
  %75 = sext i32 %74 to i64
  %76 = icmp ne i64 %75, 0
  br i1 %76, label %77, label %80

77:                                               ; preds = %68, %59
  %78 = load i32, ptr %37, align 4
  %79 = load i32, ptr %38, align 4
  call void @zend_wrong_parameters_count_error(i32 noundef %78, i32 noundef %79)
  store i32 1, ptr %47, align 4
  br label %199

80:                                               ; preds = %68
  %81 = load ptr, ptr %31, align 8
  %82 = getelementptr inbounds %struct._zval_struct, ptr %81, i64 4
  store ptr %82, ptr %41, align 8
  store i8 1, ptr %46, align 1
  %83 = load i32, ptr %40, align 4
  %84 = add i32 %83, 1
  store i32 %84, ptr %40, align 4
  %85 = load i32, ptr %40, align 4
  %86 = load i32, ptr %37, align 4
  %87 = icmp ule i32 %85, %86
  br i1 %87, label %93, label %88

88:                                               ; preds = %80
  %89 = load i8, ptr %46, align 1
  %90 = trunc i8 %89 to i1
  %91 = zext i1 %90 to i32
  %92 = icmp eq i32 %91, 1
  br label %93

93:                                               ; preds = %88, %80
  %94 = phi i1 [ true, %80 ], [ %92, %88 ]
  call void @llvm.assume(i1 %94)
  %95 = load i32, ptr %40, align 4
  %96 = load i32, ptr %37, align 4
  %97 = icmp ugt i32 %95, %96
  br i1 %97, label %103, label %98

98:                                               ; preds = %93
  %99 = load i8, ptr %46, align 1
  %100 = trunc i8 %99 to i1
  %101 = zext i1 %100 to i32
  %102 = icmp eq i32 %101, 0
  br label %103

103:                                              ; preds = %98, %93
  %104 = phi i1 [ true, %93 ], [ %102, %98 ]
  call void @llvm.assume(i1 %104)
  %105 = load i8, ptr %46, align 1
  %106 = trunc i8 %105 to i1
  br i1 %106, label %107, label %118

107:                                              ; preds = %103
  %108 = load i32, ptr %40, align 4
  %109 = load i32, ptr %39, align 4
  %110 = icmp ugt i32 %108, %109
  %111 = xor i1 %110, true
  %112 = xor i1 %111, true
  %113 = zext i1 %112 to i32
  %114 = sext i32 %113 to i64
  %115 = icmp ne i64 %114, 0
  br i1 %115, label %116, label %117

116:                                              ; preds = %107
  br label %199

117:                                              ; preds = %107
  br label %118

118:                                              ; preds = %117, %103
  %119 = load ptr, ptr %41, align 8
  %120 = getelementptr inbounds %struct._zval_struct, ptr %119, i32 1
  store ptr %120, ptr %41, align 8
  %121 = load ptr, ptr %41, align 8
  store ptr %121, ptr %42, align 8
  %122 = load ptr, ptr %42, align 8
  %123 = load i32, ptr %40, align 4
  store ptr %122, ptr %14, align 8
  store ptr %34, ptr %15, align 8
  store ptr %45, ptr %16, align 8
  store i8 0, ptr %17, align 1
  store i32 %123, ptr %18, align 4
  %124 = load ptr, ptr %14, align 8
  %125 = load ptr, ptr %15, align 8
  %126 = load ptr, ptr %16, align 8
  %127 = load i8, ptr %17, align 1
  %128 = trunc i8 %127 to i1
  %129 = load i32, ptr %18, align 4
  store ptr %124, ptr %8, align 8
  store ptr %125, ptr %9, align 8
  store ptr %126, ptr %10, align 8
  %130 = zext i1 %128 to i8
  store i8 %130, ptr %11, align 1
  store i32 %129, ptr %12, align 4
  store i8 0, ptr %13, align 1
  %131 = load i8, ptr %11, align 1
  %132 = trunc i8 %131 to i1
  br i1 %132, label %133, label %135

133:                                              ; preds = %118
  %134 = load ptr, ptr %10, align 8
  store i8 0, ptr %134, align 1
  br label %135

135:                                              ; preds = %133, %118
  %136 = load ptr, ptr %8, align 8
  store ptr %136, ptr %4, align 8
  %137 = load ptr, ptr %4, align 8
  %138 = getelementptr inbounds %struct._zval_struct, ptr %137, i32 0, i32 1
  %139 = load i8, ptr %138, align 8
  %140 = zext i8 %139 to i32
  %141 = icmp eq i32 %140, 3
  br i1 %141, label %142, label %144

142:                                              ; preds = %135
  %143 = load ptr, ptr %9, align 8
  store i8 1, ptr %143, align 1
  br label %180

144:                                              ; preds = %135
  %145 = load ptr, ptr %8, align 8
  store ptr %145, ptr %5, align 8
  %146 = load ptr, ptr %5, align 8
  %147 = getelementptr inbounds %struct._zval_struct, ptr %146, i32 0, i32 1
  %148 = load i8, ptr %147, align 8
  %149 = zext i8 %148 to i32
  %150 = icmp eq i32 %149, 2
  br i1 %150, label %151, label %153

151:                                              ; preds = %144
  %152 = load ptr, ptr %9, align 8
  store i8 0, ptr %152, align 1
  br label %179

153:                                              ; preds = %144
  %154 = load i8, ptr %11, align 1
  %155 = trunc i8 %154 to i1
  br i1 %155, label %156, label %166

156:                                              ; preds = %153
  %157 = load ptr, ptr %8, align 8
  store ptr %157, ptr %6, align 8
  %158 = load ptr, ptr %6, align 8
  %159 = getelementptr inbounds %struct._zval_struct, ptr %158, i32 0, i32 1
  %160 = load i8, ptr %159, align 8
  %161 = zext i8 %160 to i32
  %162 = icmp eq i32 %161, 1
  br i1 %162, label %163, label %166

163:                                              ; preds = %156
  %164 = load ptr, ptr %10, align 8
  store i8 1, ptr %164, align 1
  %165 = load ptr, ptr %9, align 8
  store i8 0, ptr %165, align 1
  br label %179

166:                                              ; preds = %156, %153
  %167 = load i8, ptr %13, align 1
  %168 = trunc i8 %167 to i1
  br i1 %168, label %169, label %174

169:                                              ; preds = %166
  %170 = load ptr, ptr %8, align 8
  %171 = load ptr, ptr %9, align 8
  %172 = load i32, ptr %12, align 4
  %173 = call zeroext i1 @zend_flf_parse_arg_bool_slow(ptr noundef %170, ptr noundef %171, i32 noundef %172) #6
  store i1 %173, ptr %7, align 1
  br label %181

174:                                              ; preds = %166
  %175 = load ptr, ptr %8, align 8
  %176 = load ptr, ptr %9, align 8
  %177 = load i32, ptr %12, align 4
  %178 = call zeroext i1 @zend_parse_arg_bool_slow(ptr noundef %175, ptr noundef %176, i32 noundef %177) #6
  store i1 %178, ptr %7, align 1
  br label %181

179:                                              ; preds = %163, %151
  br label %180

180:                                              ; preds = %179, %142
  store i1 true, ptr %7, align 1
  br label %181

181:                                              ; preds = %180, %174, %169
  %182 = load i1, ptr %7, align 1
  %183 = xor i1 %182, true
  %184 = xor i1 %183, true
  %185 = xor i1 %184, true
  %186 = zext i1 %185 to i32
  %187 = sext i32 %186 to i64
  %188 = icmp ne i64 %187, 0
  br i1 %188, label %189, label %190

189:                                              ; preds = %181
  store i32 2, ptr %43, align 4
  store i32 9, ptr %47, align 4
  br label %199

190:                                              ; preds = %181
  %191 = load i32, ptr %40, align 4
  %192 = load i32, ptr %38, align 4
  %193 = icmp eq i32 %191, %192
  br i1 %193, label %197, label %194

194:                                              ; preds = %190
  %195 = load i32, ptr %38, align 4
  %196 = icmp eq i32 %195, -1
  br label %197

197:                                              ; preds = %194, %190
  %198 = phi i1 [ true, %190 ], [ %196, %194 ]
  call void @llvm.assume(i1 %198)
  br label %199

199:                                              ; preds = %197, %189, %116, %77
  %200 = load i32, ptr %47, align 4
  %201 = icmp ne i32 %200, 0
  %202 = xor i1 %201, true
  %203 = xor i1 %202, true
  %204 = zext i1 %203 to i32
  %205 = sext i32 %204 to i64
  %206 = icmp ne i64 %205, 0
  br i1 %206, label %207, label %213

207:                                              ; preds = %199
  %208 = load i32, ptr %47, align 4
  %209 = load i32, ptr %40, align 4
  %210 = load ptr, ptr %44, align 8
  %211 = load i32, ptr %43, align 4
  %212 = load ptr, ptr %42, align 8
  call void @zend_wrong_parameter_error(i32 noundef %208, i32 noundef %209, ptr noundef %210, i32 noundef %211, ptr noundef %212)
  br label %313

213:                                              ; preds = %199
  br label %214

214:                                              ; preds = %213
  %215 = call i32 @gettimeofday(ptr noundef %35, ptr noundef null) #6
  %216 = icmp ne i32 %215, 0
  br i1 %216, label %217, label %218

217:                                              ; preds = %214
  call void @llvm.assume(i1 false)
  br label %218

218:                                              ; preds = %217, %214
  %219 = load i8, ptr %34, align 1
  %220 = trunc i8 %219 to i1
  br i1 %220, label %221, label %239

221:                                              ; preds = %218
  br label %222

222:                                              ; preds = %221
  br label %223

223:                                              ; preds = %222
  %224 = load ptr, ptr %32, align 8
  store ptr %224, ptr %48, align 8
  %225 = getelementptr inbounds %struct.timeval, ptr %35, i32 0, i32 0
  %226 = load i64, ptr %225, align 8
  %227 = sitofp i64 %226 to double
  %228 = getelementptr inbounds %struct.timeval, ptr %35, i32 0, i32 1
  %229 = load i64, ptr %228, align 8
  %230 = sitofp i64 %229 to double
  %231 = fdiv double %230, 1.000000e+06
  %232 = fadd double %227, %231
  %233 = load ptr, ptr %48, align 8
  %234 = getelementptr inbounds %struct._zval_struct, ptr %233, i32 0, i32 0
  store double %232, ptr %234, align 8
  %235 = load ptr, ptr %48, align 8
  %236 = getelementptr inbounds %struct._zval_struct, ptr %235, i32 0, i32 1
  store i32 5, ptr %236, align 8
  br label %237

237:                                              ; preds = %223
  br label %313

238:                                              ; No predecessors!
  br label %239

239:                                              ; preds = %238, %218
  %240 = load i32, ptr %33, align 4
  %241 = icmp ne i32 %240, 0
  br i1 %241, label %242, label %295

242:                                              ; preds = %239
  %243 = getelementptr inbounds %struct.timeval, ptr %35, i32 0, i32 0
  %244 = load i64, ptr %243, align 8
  %245 = call ptr @get_timezone_info()
  %246 = call ptr @timelib_get_time_zone_info(i64 noundef %244, ptr noundef %245)
  store ptr %246, ptr %49, align 8
  br label %247

247:                                              ; preds = %242
  %248 = call ptr @_zend_new_array_0()
  store ptr %248, ptr %50, align 8
  %249 = load ptr, ptr %32, align 8
  store ptr %249, ptr %51, align 8
  %250 = load ptr, ptr %50, align 8
  %251 = load ptr, ptr %51, align 8
  %252 = getelementptr inbounds %struct._zval_struct, ptr %251, i32 0, i32 0
  store ptr %250, ptr %252, align 8
  %253 = load ptr, ptr %51, align 8
  %254 = getelementptr inbounds %struct._zval_struct, ptr %253, i32 0, i32 1
  store i32 775, ptr %254, align 8
  br label %255

255:                                              ; preds = %247
  %256 = load ptr, ptr %32, align 8
  %257 = getelementptr inbounds %struct.timeval, ptr %35, i32 0, i32 0
  %258 = load i64, ptr %257, align 8
  store ptr %256, ptr %19, align 8
  store ptr @.str.17, ptr %20, align 8
  store i64 %258, ptr %21, align 8
  %259 = load ptr, ptr %19, align 8
  %260 = load ptr, ptr %20, align 8
  %261 = load ptr, ptr %20, align 8
  %262 = call i64 @strlen(ptr noundef %261) #7
  %263 = load i64, ptr %21, align 8
  call void @add_assoc_long_ex(ptr noundef %259, ptr noundef %260, i64 noundef %262, i64 noundef %263) #6
  %264 = load ptr, ptr %32, align 8
  %265 = getelementptr inbounds %struct.timeval, ptr %35, i32 0, i32 1
  %266 = load i64, ptr %265, align 8
  store ptr %264, ptr %22, align 8
  store ptr @.str.18, ptr %23, align 8
  store i64 %266, ptr %24, align 8
  %267 = load ptr, ptr %22, align 8
  %268 = load ptr, ptr %23, align 8
  %269 = load ptr, ptr %23, align 8
  %270 = call i64 @strlen(ptr noundef %269) #7
  %271 = load i64, ptr %24, align 8
  call void @add_assoc_long_ex(ptr noundef %267, ptr noundef %268, i64 noundef %270, i64 noundef %271) #6
  %272 = load ptr, ptr %32, align 8
  %273 = load ptr, ptr %49, align 8
  %274 = getelementptr inbounds %struct._timelib_time_offset, ptr %273, i32 0, i32 0
  %275 = load i32, ptr %274, align 8
  %276 = sub nsw i32 0, %275
  %277 = sdiv i32 %276, 60
  %278 = sext i32 %277 to i64
  store ptr %272, ptr %25, align 8
  store ptr @.str.19, ptr %26, align 8
  store i64 %278, ptr %27, align 8
  %279 = load ptr, ptr %25, align 8
  %280 = load ptr, ptr %26, align 8
  %281 = load ptr, ptr %26, align 8
  %282 = call i64 @strlen(ptr noundef %281) #7
  %283 = load i64, ptr %27, align 8
  call void @add_assoc_long_ex(ptr noundef %279, ptr noundef %280, i64 noundef %282, i64 noundef %283) #6
  %284 = load ptr, ptr %32, align 8
  %285 = load ptr, ptr %49, align 8
  %286 = getelementptr inbounds %struct._timelib_time_offset, ptr %285, i32 0, i32 2
  %287 = load i32, ptr %286, align 8
  %288 = zext i32 %287 to i64
  store ptr %284, ptr %28, align 8
  store ptr @.str.20, ptr %29, align 8
  store i64 %288, ptr %30, align 8
  %289 = load ptr, ptr %28, align 8
  %290 = load ptr, ptr %29, align 8
  %291 = load ptr, ptr %29, align 8
  %292 = call i64 @strlen(ptr noundef %291) #7
  %293 = load i64, ptr %30, align 8
  call void @add_assoc_long_ex(ptr noundef %289, ptr noundef %290, i64 noundef %292, i64 noundef %293) #6
  %294 = load ptr, ptr %49, align 8
  call void @timelib_time_offset_dtor(ptr noundef %294)
  br label %313

295:                                              ; preds = %239
  br label %296

296:                                              ; preds = %295
  br label %297

297:                                              ; preds = %296
  %298 = load ptr, ptr %32, align 8
  store ptr %298, ptr %52, align 8
  %299 = getelementptr inbounds %struct.timeval, ptr %35, i32 0, i32 1
  %300 = load i64, ptr %299, align 8
  %301 = sitofp i64 %300 to double
  %302 = fdiv double %301, 1.000000e+06
  %303 = getelementptr inbounds %struct.timeval, ptr %35, i32 0, i32 0
  %304 = load i64, ptr %303, align 8
  %305 = call ptr (i64, ptr, ...) @zend_strpprintf(i64 noundef 0, ptr noundef @.str.21, double noundef %302, i64 noundef %304)
  store ptr %305, ptr %53, align 8
  %306 = load ptr, ptr %53, align 8
  %307 = load ptr, ptr %52, align 8
  %308 = getelementptr inbounds %struct._zval_struct, ptr %307, i32 0, i32 0
  store ptr %306, ptr %308, align 8
  %309 = load ptr, ptr %52, align 8
  %310 = getelementptr inbounds %struct._zval_struct, ptr %309, i32 0, i32 1
  store i32 262, ptr %310, align 8
  br label %311

311:                                              ; preds = %297
  br label %313

312:                                              ; No predecessors!
  br label %313

313:                                              ; preds = %312, %311, %255, %237, %207
  ret void
}