; Function Attrs: nounwind uwtable
define internal fastcc void @_php_gettimeofday(ptr noundef %0, ptr noundef %1, i32 noundef %2) unnamed_addr #0 {
  %4 = alloca i8, align 1
  %5 = alloca %struct.timeval, align 8
  store i8 0, ptr %4, align 1
  call void @llvm.memset.p0.i64(ptr noundef nonnull align 8 dereferenceable(16) %5, i8 0, i64 16, i1 false)
  %6 = getelementptr inbounds i8, ptr %0, i64 44
  %7 = load i32, ptr %6, align 4
  %8 = icmp ugt i32 %7, 1
  br i1 %8, label %.thread123, label %9

.thread123:                                       ; preds = %3
  tail call void @zend_wrong_parameters_count_error(i32 noundef 0, i32 noundef 1) #6
  br label %.thread136

9:                                                ; preds = %3
  %10 = icmp eq i32 %7, 0
  br i1 %10, label %.thread117, label %11

11:                                               ; preds = %9
  %12 = getelementptr inbounds i8, ptr %0, i64 88
  %13 = load i8, ptr %12, align 8
  switch i8 %13, label %15 [
    i8 3, label %.thread113
    i8 2, label %14
  ]

14:                                               ; preds = %11
  br label %.thread113

.thread113:                                       ; preds = %14, %11
  %storemerge = phi i8 [ 0, %14 ], [ 1, %11 ]
  store i8 %storemerge, ptr %4, align 1
  br label %.thread117

15:                                               ; preds = %11
  %16 = getelementptr inbounds i8, ptr %0, i64 80
  %17 = call zeroext i1 @zend_parse_arg_bool_slow(ptr noundef nonnull %16, ptr noundef nonnull %4, i32 noundef 1) #6
  %.fr = freeze i1 %17
  br i1 %.fr, label %.thread117, label %.thread136

.thread136:                                       ; preds = %15, %.thread123
  %.091132 = phi i32 [ 0, %.thread123 ], [ 1, %15 ]
  %.092131 = phi ptr [ null, %.thread123 ], [ %16, %15 ]
  %.093130 = phi i32 [ 0, %.thread123 ], [ 2, %15 ]
  %.094129 = phi i32 [ 1, %.thread123 ], [ 9, %15 ]
  call void @zend_wrong_parameter_error(i32 noundef %.094129, i32 noundef %.091132, ptr noundef null, i32 noundef %.093130, ptr noundef %.092131) #6
  br label %53

.thread117:                                       ; preds = %15, %.thread113, %9
  %18 = call i32 @gettimeofday(ptr noundef nonnull %5, ptr noundef null) #6
  %.not97 = icmp eq i32 %18, 0
  call void @llvm.assume(i1 %.not97)
  %19 = load i8, ptr %4, align 1
  %20 = and i8 %19, 1
  %.not98 = icmp eq i8 %20, 0
  br i1 %.not98, label %30, label %21

21:                                               ; preds = %.thread117
  %22 = load i64, ptr %5, align 8
  %23 = sitofp i64 %22 to double
  %24 = getelementptr inbounds i8, ptr %5, i64 8
  %25 = load i64, ptr %24, align 8
  %26 = sitofp i64 %25 to double
  %27 = fdiv double %26, 1.000000e+06
  %28 = fadd double %27, %23
  store double %28, ptr %1, align 8
  %29 = getelementptr inbounds i8, ptr %1, i64 8
  store i32 5, ptr %29, align 8
  br label %53

30:                                               ; preds = %.thread117
  %.not99 = icmp eq i32 %2, 0
  br i1 %.not99, label %45, label %31

31:                                               ; preds = %30
  %32 = load i64, ptr %5, align 8
  %33 = call ptr @get_timezone_info() #6
  %34 = call ptr @timelib_get_time_zone_info(i64 noundef %32, ptr noundef %33) #6
  %35 = call ptr @_zend_new_array_0() #6
  store ptr %35, ptr %1, align 8
  %36 = getelementptr inbounds i8, ptr %1, i64 8
  store i32 775, ptr %36, align 8
  call void @add_assoc_long_ex(ptr noundef nonnull %1, ptr noundef nonnull @.str.17, i64 noundef 3, i64 noundef %32) #6
  %37 = getelementptr inbounds i8, ptr %5, i64 8
  %38 = load i64, ptr %37, align 8
  call void @add_assoc_long_ex(ptr noundef nonnull %1, ptr noundef nonnull @.str.18, i64 noundef 4, i64 noundef %38) #6
  %39 = load i32, ptr %34, align 8
  %40 = sdiv i32 %39, -60
  %41 = sext i32 %40 to i64
  call void @add_assoc_long_ex(ptr noundef nonnull %1, ptr noundef nonnull @.str.19, i64 noundef 11, i64 noundef %41) #6
  %42 = getelementptr inbounds i8, ptr %34, i64 8
  %43 = load i32, ptr %42, align 8
  %44 = zext i32 %43 to i64
  call void @add_assoc_long_ex(ptr noundef nonnull %1, ptr noundef nonnull @.str.20, i64 noundef 7, i64 noundef %44) #6
  call void @timelib_time_offset_dtor(ptr noundef nonnull %34) #6
  br label %53

45:                                               ; preds = %30
  %46 = getelementptr inbounds i8, ptr %5, i64 8
  %47 = load i64, ptr %46, align 8
  %48 = sitofp i64 %47 to double
  %49 = fdiv double %48, 1.000000e+06
  %50 = load i64, ptr %5, align 8
  %51 = call ptr (i64, ptr, ...) @zend_strpprintf(i64 noundef 0, ptr noundef nonnull @.str.21, double noundef %49, i64 noundef %50) #6
  store ptr %51, ptr %1, align 8
  %52 = getelementptr inbounds i8, ptr %1, i64 8
  store i32 262, ptr %52, align 8
  br label %53

53:                                               ; preds = %45, %31, %21, %.thread136
  ret void
}